target datalayout = "e-m:e-p270:32:32-p271:32:32-p272:64:64-i64:64-i128:128-f80:128-n8:16:32:64-S128"
target triple = "x86_64-pc-linux-gnu"

%struct.LogicalDecodingContext = type { ptr, ptr, ptr, ptr, ptr, i8, %struct.OutputPluginCallbacks, %struct.OutputPluginOptions, ptr, ptr, ptr, ptr, ptr, ptr, ptr, i8, i8, i8, i8, i8, i64, i32, i8, i8 }
%struct.OutputPluginCallbacks = type { ptr, ptr, ptr, ptr, ptr, ptr, ptr, ptr, ptr, ptr, ptr, ptr, ptr, ptr, ptr, ptr, ptr, ptr, ptr, ptr, ptr }
%struct.OutputPluginOptions = type { i32, i8 }
%struct.LogicalErrorCallbackState = type { ptr, ptr, i64 }
%struct.ErrorContextCallback = type { ptr, ptr, ptr }

@.str.20 = private unnamed_addr constant [15 x i8] c"filter_prepare\00", align 1
@error_context_stack = external global ptr, align 8

; Function Attrs: nounwind uwtable
define dso_local zeroext i1 @filter_prepare_cb_wrapper(ptr noundef %0, i32 noundef %1, ptr noundef %2) #0 {
  %4 = alloca ptr, align 8
  %5 = alloca i32, align 4
  %6 = alloca ptr, align 8
  %7 = alloca %struct.LogicalErrorCallbackState, align 8
  %8 = alloca %struct.ErrorContextCallback, align 8
  %9 = alloca i8, align 1
  store ptr %0, ptr %4, align 8
  store i32 %1, ptr %5, align 4
  store ptr %2, ptr %6, align 8
  call void @llvm.lifetime.start.p0(i64 24, ptr %7) #10
  call void @llvm.lifetime.start.p0(i64 24, ptr %8) #10
  call void @llvm.lifetime.start.p0(i64 1, ptr %9) #10
  %10 = load ptr, ptr %4, align 8
  %11 = getelementptr inbounds nuw %struct.LogicalErrorCallbackState, ptr %7, i32 0, i32 0
  store ptr %10, ptr %11, align 8
  %12 = getelementptr inbounds nuw %struct.LogicalErrorCallbackState, ptr %7, i32 0, i32 1
  store ptr @.str.20, ptr %12, align 8
  %13 = getelementptr inbounds nuw %struct.LogicalErrorCallbackState, ptr %7, i32 0, i32 2
  store i64 0, ptr %13, align 8
  %14 = getelementptr inbounds nuw %struct.ErrorContextCallback, ptr %8, i32 0, i32 1
  store ptr @output_plugin_error_callback, ptr %14, align 8
  %15 = getelementptr inbounds nuw %struct.ErrorContextCallback, ptr %8, i32 0, i32 2
  store ptr %7, ptr %15, align 8
  %16 = load ptr, ptr @error_context_stack, align 8
  %17 = getelementptr inbounds nuw %struct.ErrorContextCallback, ptr %8, i32 0, i32 0
  store ptr %16, ptr %17, align 8
  store ptr %8, ptr @error_context_stack, align 8
  %18 = load ptr, ptr %4, align 8
  %19 = getelementptr inbounds nuw %struct.LogicalDecodingContext, ptr %18, i32 0, i32 18
  store i8 0, ptr %19, align 1
  %20 = load ptr, ptr %4, align 8
  %21 = getelementptr inbounds nuw %struct.LogicalDecodingContext, ptr %20, i32 0, i32 22
  store i8 0, ptr %21, align 4
  %22 = load ptr, ptr %4, align 8
  %23 = getelementptr inbounds nuw %struct.LogicalDecodingContext, ptr %22, i32 0, i32 6
  %24 = getelementptr inbounds nuw %struct.OutputPluginCallbacks, ptr %23, i32 0, i32 8
  %25 = load ptr, ptr %24, align 8
  %26 = load ptr, ptr %4, align 8
  %27 = load i32, ptr %5, align 4
  %28 = load ptr, ptr %6, align 8
  %29 = call zeroext i1 %25(ptr noundef %26, i32 noundef %27, ptr noundef %28)
  %30 = zext i1 %29 to i8
  store i8 %30, ptr %9, align 1
  %31 = getelementptr inbounds nuw %struct.ErrorContextCallback, ptr %8, i32 0, i32 0
  %32 = load ptr, ptr %31, align 8
  store ptr %32, ptr @error_context_stack, align 8
  %33 = load i8, ptr %9, align 1, !range !6, !noundef !7
  %34 = trunc i8 %33 to i1
  call void @llvm.lifetime.end.p0(i64 1, ptr %9) #10
  call void @llvm.lifetime.end.p0(i64 24, ptr %8) #10
  call void @llvm.lifetime.end.p0(i64 24, ptr %7) #10
  ret i1 %34
}