; Function Attrs: nounwind uwtable
define dso_local zeroext i1 @filter_prepare_cb_wrapper(ptr noundef %0, i32 noundef %1, ptr noundef %2) local_unnamed_addr #0 {
  %4 = alloca %struct.LogicalErrorCallbackState, align 8
  %5 = alloca %struct.ErrorContextCallback, align 8
  call void @llvm.lifetime.start.p0(i64 24, ptr nonnull %4) #10
  call void @llvm.lifetime.start.p0(i64 24, ptr nonnull %5) #10
  store ptr %0, ptr %4, align 8
  %6 = getelementptr inbounds nuw i8, ptr %4, i64 8
  store ptr @.str.20, ptr %6, align 8
  %7 = getelementptr inbounds nuw i8, ptr %4, i64 16
  store i64 0, ptr %7, align 8
  %8 = getelementptr inbounds nuw i8, ptr %5, i64 8
  store ptr @output_plugin_error_callback, ptr %8, align 8
  %9 = getelementptr inbounds nuw i8, ptr %5, i64 16
  store ptr %4, ptr %9, align 8
  %10 = load ptr, ptr @error_context_stack, align 8
  store ptr %10, ptr %5, align 8
  store ptr %5, ptr @error_context_stack, align 8
  %11 = getelementptr inbounds nuw i8, ptr %0, i64 283
  store i8 0, ptr %11, align 1
  %12 = getelementptr inbounds nuw i8, ptr %0, i64 300
  store i8 0, ptr %12, align 4
  %13 = getelementptr inbounds nuw i8, ptr %0, i64 112
  %14 = load ptr, ptr %13, align 8
  %15 = call zeroext i1 %14(ptr noundef %0, i32 noundef %1, ptr noundef %2) #10
  %16 = load ptr, ptr %5, align 8
  store ptr %16, ptr @error_context_stack, align 8
  call void @llvm.lifetime.end.p0(i64 24, ptr nonnull %5) #10
  call void @llvm.lifetime.end.p0(i64 24, ptr nonnull %4) #10
  ret i1 %15
}